target datalayout = "e-m:e-p270:32:32-p271:32:32-p272:64:64-i64:64-i128:128-f80:128-n8:16:32:64-S128"
target triple = "x86_64-unknown-linux-gnu"

%class.anon.53 = type { i8 }
%"class.absl::lts_20230802::Mutex" = type { %"struct.std::atomic" }
%"struct.std::atomic" = type { %"struct.std::__atomic_base" }
%"struct.std::__atomic_base" = type { i64 }
%"class.absl::lts_20230802::CondVar" = type { %"struct.std::atomic" }

@_ZL9g_init_mu = internal global ptr null, align 8
@_ZL18g_shutting_down_cv = internal global ptr null, align 8
@_ZN9grpc_core14InitInternallyE = external global ptr, align 8
@_ZN9grpc_core18ShutdownInternallyE = external global ptr, align 8
@_ZN9grpc_core23IsInitializedInternallyE = external global ptr, align 8

; Function Attrs: mustprogress nounwind uwtable
define linkonce_odr void @_ZNSt13__atomic_baseIlEC2El(ptr noundef nonnull align 8 dereferenceable(8) %this, i64 noundef %__i) unnamed_addr #5 comdat align 2 {
entry:
  %this.addr = alloca ptr, align 8
  %__i.addr = alloca i64, align 8
  store ptr %this, ptr %this.addr, align 8
  store i64 %__i, ptr %__i.addr, align 8
  %this1 = load ptr, ptr %this.addr, align 8
  %_M_i = getelementptr inbounds %"struct.std::__atomic_base", ptr %this1, i32 0, i32 0
  %0 = load i64, ptr %__i.addr, align 8
  store i64 %0, ptr %_M_i, align 8
  ret void
}

; Function Attrs: mustprogress nounwind uwtable
define linkonce_odr void @_ZNSt6atomicIlEC2El(ptr noundef nonnull align 8 dereferenceable(8) %this, i64 noundef %__i) unnamed_addr #5 comdat align 2 {
entry:
  %this.addr = alloca ptr, align 8
  %__i.addr = alloca i64, align 8
  store ptr %this, ptr %this.addr, align 8
  store i64 %__i, ptr %__i.addr, align 8
  %this1 = load ptr, ptr %this.addr, align 8
  %0 = load i64, ptr %__i.addr, align 8
  call void @_ZNSt13__atomic_baseIlEC2El(ptr noundef nonnull align 8 dereferenceable(8) %this1, i64 noundef %0) #3
  ret void
}

; Function Attrs: mustprogress nounwind uwtable
define linkonce_odr void @_ZN4absl12lts_202308027CondVarC2Ev(ptr noundef nonnull align 8 dereferenceable(8) %this) unnamed_addr #5 comdat align 2 {
entry:
  %this.addr = alloca ptr, align 8
  store ptr %this, ptr %this.addr, align 8
  %this1 = load ptr, ptr %this.addr, align 8
  %cv_ = getelementptr inbounds %"class.absl::lts_20230802::CondVar", ptr %this1, i32 0, i32 0
  call void @_ZNSt6atomicIlEC2El(ptr noundef nonnull align 8 dereferenceable(8) %cv_, i64 noundef 0) #3
  ret void
}

; Function Attrs: mustprogress nounwind uwtable
define linkonce_odr void @_ZN4absl12lts_202308025MutexC2Ev(ptr noundef nonnull align 8 dereferenceable(8) %this) unnamed_addr #5 comdat align 2 {
entry:
  %this.addr = alloca ptr, align 8
  store ptr %this, ptr %this.addr, align 8
  %this1 = load ptr, ptr %this.addr, align 8
  %mu_ = getelementptr inbounds %"class.absl::lts_20230802::Mutex", ptr %this1, i32 0, i32 0
  call void @_ZNSt6atomicIlEC2El(ptr noundef nonnull align 8 dereferenceable(8) %mu_, i64 noundef 0) #3
  ret void
}

; Function Attrs: mustprogress nounwind uwtable
define internal noundef ptr @"_ZZL13do_basic_initvENK3$_0cvPFbvEEv"(ptr noundef nonnull align 1 dereferenceable(1) %this) #5 align 2 {
entry:
  %this.addr = alloca ptr, align 8
  store ptr %this, ptr %this.addr, align 8
  ret ptr @"_ZZL13do_basic_initvEN3$_08__invokeEv"
}

; Function Attrs: mustprogress uwtable
define internal void @_ZL13do_basic_initv() #4 personality ptr @__gxx_personality_v0 {
entry:
  %ref.tmp = alloca %class.anon.53, align 1
  %exn.slot = alloca ptr, align 8
  %ehselector.slot = alloca i32, align 4
  store ptr @grpc_init, ptr @_ZN9grpc_core14InitInternallyE, align 8
  store ptr @grpc_shutdown, ptr @_ZN9grpc_core18ShutdownInternallyE, align 8
  %call = call noundef ptr @"_ZZL13do_basic_initvENK3$_0cvPFbvEEv"(ptr noundef nonnull align 1 dereferenceable(1) %ref.tmp) #3
  store ptr %call, ptr @_ZN9grpc_core23IsInitializedInternallyE, align 8
  call void @gpr_log_verbosity_init()
  %call1 = call noalias noundef nonnull ptr @_Znwm(i64 noundef 8) #14
  invoke void @_ZN4absl12lts_202308025MutexC2Ev(ptr noundef nonnull align 8 dereferenceable(8) %call1)
          to label %invoke.cont unwind label %lpad

invoke.cont:                                      ; preds = %entry
  store ptr %call1, ptr @_ZL9g_init_mu, align 8
  %call2 = call noalias noundef nonnull ptr @_Znwm(i64 noundef 8) #14
  invoke void @_ZN4absl12lts_202308027CondVarC2Ev(ptr noundef nonnull align 8 dereferenceable(8) %call2)
          to label %invoke.cont4 unwind label %lpad3

invoke.cont4:                                     ; preds = %invoke.cont
  store ptr %call2, ptr @_ZL18g_shutting_down_cv, align 8
  call void @gpr_time_init()
  call void @_ZN9grpc_core20PrintExperimentsListEv()
  call void @_ZN9grpc_core4Fork10GlobalInitEv()
  call void @_Z32grpc_fork_handlers_auto_registerv()
  call void @_Z16grpc_tracer_initv()
  call void @_Z46grpc_client_channel_global_init_backup_pollingv()
  ret void

lpad:                                             ; preds = %entry
  %0 = landingpad { ptr, i32 }
          cleanup
  %1 = extractvalue { ptr, i32 } %0, 0
  store ptr %1, ptr %exn.slot, align 8
  %2 = extractvalue { ptr, i32 } %0, 1
  store i32 %2, ptr %ehselector.slot, align 4
  call void @_ZdlPv(ptr noundef %call1) #15
  br label %eh.resume

lpad3:                                            ; preds = %invoke.cont
  %3 = landingpad { ptr, i32 }
          cleanup
  %4 = extractvalue { ptr, i32 } %3, 0
  store ptr %4, ptr %exn.slot, align 8
  %5 = extractvalue { ptr, i32 } %3, 1
  store i32 %5, ptr %ehselector.slot, align 4
  call void @_ZdlPv(ptr noundef %call2) #15
  br label %eh.resume

eh.resume:                                        ; preds = %lpad3, %lpad
  %exn = load ptr, ptr %exn.slot, align 8
  %sel = load i32, ptr %ehselector.slot, align 4
  %lpad.val = insertvalue { ptr, i32 } poison, ptr %exn, 0
  %lpad.val5 = insertvalue { ptr, i32 } %lpad.val, i32 %sel, 1
  resume { ptr, i32 } %lpad.val5
}