; Function Attrs: mustprogress uwtable
define internal void @_ZL13do_basic_initv() #3 personality ptr @__gxx_personality_v0 {
entry:
  store ptr @grpc_init, ptr @_ZN9grpc_core14InitInternallyE, align 8
  store ptr @grpc_shutdown, ptr @_ZN9grpc_core18ShutdownInternallyE, align 8
  store ptr @"_ZZL13do_basic_initvEN3$_08__invokeEv", ptr @_ZN9grpc_core23IsInitializedInternallyE, align 8
  tail call void @gpr_log_verbosity_init()
  %call1 = tail call noalias noundef nonnull dereferenceable(8) ptr @_Znwm(i64 noundef 8) #16
  store i64 0, ptr %call1, align 8
  store ptr %call1, ptr @_ZL9g_init_mu, align 8
  %call2 = tail call noalias noundef nonnull dereferenceable(8) ptr @_Znwm(i64 noundef 8) #16
  store i64 0, ptr %call2, align 8
  store ptr %call2, ptr @_ZL18g_shutting_down_cv, align 8
  tail call void @gpr_time_init()
  tail call void @_ZN9grpc_core20PrintExperimentsListEv()
  tail call void @_ZN9grpc_core4Fork10GlobalInitEv()
  tail call void @_Z32grpc_fork_handlers_auto_registerv()
  tail call void @_Z16grpc_tracer_initv()
  tail call void @_Z46grpc_client_channel_global_init_backup_pollingv()
  ret void
}